; Function Attrs: nounwind uwtable
define void @glfwGetWindowPos(ptr noundef %0, ptr noundef %1, ptr noundef %2) local_unnamed_addr #0 {
  %.not = icmp eq ptr %1, null
  br i1 %.not, label %5, label %4

4:                                                ; preds = %3
  store i32 0, ptr %1, align 4, !tbaa !140
  br label %5

5:                                                ; preds = %4, %3
  %.not9 = icmp eq ptr %2, null
  br i1 %.not9, label %7, label %6

6:                                                ; preds = %5
  store i32 0, ptr %2, align 4, !tbaa !140
  br label %7

7:                                                ; preds = %6, %5
  %8 = load i32, ptr @_glfw, align 8, !tbaa !138
  %.not10 = icmp eq i32 %8, 0
  br i1 %.not10, label %9, label %10

9:                                                ; preds = %7
  tail call void (i32, ptr, ...) @_glfwInputError(i32 noundef 65537, ptr noundef null) #7
  br label %12

10:                                               ; preds = %7
  %11 = load ptr, ptr getelementptr inbounds nuw (i8, ptr @_glfw, i64 304), align 8, !tbaa !228
  tail call void %11(ptr noundef %0, ptr noundef %1, ptr noundef %2) #7
  br label %12

12:                                               ; preds = %10, %9
  ret void
}